; Function Attrs: mustprogress uwtable
define hidden range(i32 -2147483648, 2147466752) i32 @mbedtls_rsa_validate_crt(ptr noundef %0, ptr noundef %1, ptr noundef %2, ptr noundef %3, ptr noundef %4, ptr noundef %5) local_unnamed_addr #0 {
  %7 = alloca %struct.mbedtls_mpi, align 8
  %8 = alloca %struct.mbedtls_mpi, align 8
  call void @llvm.lifetime.start.p0(i64 24, ptr nonnull %7) #3
  call void @llvm.lifetime.start.p0(i64 24, ptr nonnull %8) #3
  call void @mbedtls_mpi_init(ptr noundef nonnull %7)
  call void @mbedtls_mpi_init(ptr noundef nonnull %8)
  %.not = icmp eq ptr %3, null
  br i1 %.not, label %19, label %9

9:                                                ; preds = %6
  %10 = icmp eq ptr %0, null
  br i1 %10, label %.thread, label %11

11:                                               ; preds = %9
  %12 = call i32 @mbedtls_mpi_sub_int(ptr noundef nonnull %7, ptr noundef nonnull %0, i64 noundef 1)
  %.not44 = icmp eq i32 %12, 0
  br i1 %.not44, label %13, label %42

13:                                               ; preds = %11
  %14 = call i32 @mbedtls_mpi_sub_mpi(ptr noundef nonnull %8, ptr noundef nonnull %3, ptr noundef %2)
  %.not45 = icmp eq i32 %14, 0
  br i1 %.not45, label %15, label %42

15:                                               ; preds = %13
  %16 = call i32 @mbedtls_mpi_mod_mpi(ptr noundef nonnull %8, ptr noundef nonnull %8, ptr noundef nonnull %7)
  %.not46 = icmp eq i32 %16, 0
  br i1 %.not46, label %17, label %42

17:                                               ; preds = %15
  %18 = call i32 @mbedtls_mpi_cmp_int(ptr noundef nonnull %8, i64 noundef 0)
  %.not47 = icmp eq i32 %18, 0
  br i1 %.not47, label %19, label %.thread

19:                                               ; preds = %17, %6
  %.not48 = icmp eq ptr %4, null
  br i1 %.not48, label %30, label %20

20:                                               ; preds = %19
  %21 = icmp eq ptr %1, null
  br i1 %21, label %.thread, label %22

22:                                               ; preds = %20
  %23 = call i32 @mbedtls_mpi_sub_int(ptr noundef nonnull %7, ptr noundef nonnull %1, i64 noundef 1)
  %.not49 = icmp eq i32 %23, 0
  br i1 %.not49, label %24, label %42

24:                                               ; preds = %22
  %25 = call i32 @mbedtls_mpi_sub_mpi(ptr noundef nonnull %8, ptr noundef nonnull %4, ptr noundef %2)
  %.not50 = icmp eq i32 %25, 0
  br i1 %.not50, label %26, label %42

26:                                               ; preds = %24
  %27 = call i32 @mbedtls_mpi_mod_mpi(ptr noundef nonnull %8, ptr noundef nonnull %8, ptr noundef nonnull %7)
  %.not51 = icmp eq i32 %27, 0
  br i1 %.not51, label %28, label %42

28:                                               ; preds = %26
  %29 = call i32 @mbedtls_mpi_cmp_int(ptr noundef nonnull %8, i64 noundef 0)
  %.not52 = icmp eq i32 %29, 0
  br i1 %.not52, label %30, label %.thread

30:                                               ; preds = %28, %19
  %.not53 = icmp eq ptr %5, null
  br i1 %.not53, label %.thread, label %31

31:                                               ; preds = %30
  %32 = icmp eq ptr %0, null
  %33 = icmp eq ptr %1, null
  %or.cond = or i1 %32, %33
  br i1 %or.cond, label %.thread, label %34

34:                                               ; preds = %31
  %35 = call i32 @mbedtls_mpi_mul_mpi(ptr noundef nonnull %7, ptr noundef nonnull %5, ptr noundef nonnull %1)
  %.not54 = icmp eq i32 %35, 0
  br i1 %.not54, label %36, label %42

36:                                               ; preds = %34
  %37 = call i32 @mbedtls_mpi_sub_int(ptr noundef nonnull %7, ptr noundef nonnull %7, i64 noundef 1)
  %.not55 = icmp eq i32 %37, 0
  br i1 %.not55, label %38, label %42

38:                                               ; preds = %36
  %39 = call i32 @mbedtls_mpi_mod_mpi(ptr noundef nonnull %7, ptr noundef nonnull %7, ptr noundef nonnull %0)
  %.not56 = icmp eq i32 %39, 0
  br i1 %.not56, label %40, label %42

40:                                               ; preds = %38
  %41 = call i32 @mbedtls_mpi_cmp_int(ptr noundef nonnull %7, i64 noundef 0)
  %.not57 = icmp eq i32 %41, 0
  %spec.select = select i1 %.not57, i32 0, i32 -16896
  br label %.thread

42:                                               ; preds = %38, %36, %34, %26, %24, %22, %15, %13, %11
  %.1 = phi i32 [ %12, %11 ], [ %14, %13 ], [ %16, %15 ], [ %23, %22 ], [ %25, %24 ], [ %27, %26 ], [ %35, %34 ], [ %37, %36 ], [ %39, %38 ]
  switch i32 %.1, label %43 [
    i32 -16512, label %.thread
    i32 -16896, label %.thread
  ]

43:                                               ; preds = %42
  %44 = add nsw i32 %.1, -16896
  br label %.thread

.thread:                                          ; preds = %40, %31, %28, %20, %17, %9, %30, %42, %42, %43
  %.3 = phi i32 [ %44, %43 ], [ %.1, %42 ], [ %.1, %42 ], [ -16512, %31 ], [ -16896, %28 ], [ -16512, %20 ], [ -16896, %17 ], [ -16512, %9 ], [ 0, %30 ], [ %spec.select, %40 ]
  call void @mbedtls_mpi_free(ptr noundef nonnull %7)
  call void @mbedtls_mpi_free(ptr noundef nonnull %8)
  call void @llvm.lifetime.end.p0(i64 24, ptr nonnull %8) #3
  call void @llvm.lifetime.end.p0(i64 24, ptr nonnull %7) #3
  ret i32 %.3
}